; Function Attrs: mustprogress null_pointer_is_valid sspstrong uwtable
define void @_ZN18TapParameterDialog14setRetapOnShowEb(ptr noundef align 8 dereferenceable_or_null(232) %0, i1 noundef zeroext %1) local_unnamed_addr #3 align 2 {
  %3 = getelementptr inbounds nuw i8, ptr %0, i64 224
  %4 = load ptr, ptr %3, align 8
  tail call void @_ZN6QTimer4stopEv(ptr noundef align 8 dereferenceable_or_null(16) %4)
  br i1 %1, label %5, label %6

5:                                                ; preds = %2
  tail call void @_ZN6QTimer10singleShotEiPK7QObjectPKc(i32 noundef 0, ptr noundef %0, ptr noundef nonnull @.str.6)
  br label %6

6:                                                ; preds = %5, %2
  ret void
}